target datalayout = "e-m:e-p270:32:32-p271:32:32-p272:64:64-i64:64-i128:128-f80:128-n8:16:32:64-S128"
target triple = "x86_64-pc-linux-gnu"

%struct.png_struct_def = type { [1 x %struct.__jmp_buf_tag], ptr, ptr, i64, ptr, ptr, ptr, ptr, ptr, ptr, ptr, ptr, ptr, i8, i8, i32, i32, i32, i32, %struct.z_stream_s, ptr, i32, i32, i32, i32, i32, i32, i32, i32, i32, i32, i32, i32, i32, i32, i32, i32, i32, i32, i32, i32, i32, i64, i32, i32, i32, ptr, ptr, ptr, ptr, i64, i32, i32, ptr, i16, i32, i16, i8, i8, i8, i8, i8, i8, i8, i8, i8, i8, i8, i8, i8, i8, i8, i16, i8, i32, %struct.png_color_16_struct, %struct.png_color_16_struct, ptr, i32, i32, %struct.png_xy, i32, i32, i32, i32, i32, ptr, ptr, ptr, ptr, ptr, ptr, %struct.png_color_8_struct, %struct.png_color_8_struct, ptr, %struct.png_color_16_struct, ptr, ptr, ptr, ptr, ptr, ptr, ptr, ptr, ptr, i32, i32, i64, i64, i64, i64, i32, i32, ptr, ptr, i32, [29 x i8], i32, ptr, ptr, i32, i32, ptr, i8, i8, i16, i16, ptr, i32, i8, ptr, ptr, ptr, ptr, ptr, ptr, ptr, i8, i32, i32, i32, i64, %struct.png_unknown_chunk_t, i64, ptr, i64, i32, i32, ptr, [4 x ptr] }
%struct.__jmp_buf_tag = type { [8 x i64], i32, %struct.__sigset_t }
%struct.__sigset_t = type { [16 x i64] }
%struct.z_stream_s = type { ptr, i32, i64, ptr, i32, i64, ptr, ptr, ptr, ptr, ptr, i32, i64, i64 }
%struct.png_xy = type { i32, i32, i32, i32, i32, i32, i32, i32 }
%struct.png_color_8_struct = type { i8, i8, i8, i8, i8 }
%struct.png_color_16_struct = type { i8, i16, i16, i16, i16 }
%struct.png_unknown_chunk_t = type { [5 x i8], ptr, i64, i8 }

@png_formatted_warning.valid_parameters = internal constant [10 x i8] c"123456789\00", align 1

; Function Attrs: nounwind uwtable
define void @png_warning(ptr noalias noundef %0, ptr noundef %1) #1 {
  %3 = alloca ptr, align 8
  %4 = alloca ptr, align 8
  %5 = alloca i32, align 4
  store ptr %0, ptr %3, align 8, !tbaa !3
  store ptr %1, ptr %4, align 8, !tbaa !8
  call void @llvm.lifetime.start.p0(i64 4, ptr %5) #10
  store i32 0, ptr %5, align 4, !tbaa !31
  %6 = load ptr, ptr %3, align 8, !tbaa !3
  %7 = icmp ne ptr %6, null
  br i1 %7, label %8, label %32

8:                                                ; preds = %2
  %9 = load ptr, ptr %4, align 8, !tbaa !8
  %10 = load i8, ptr %9, align 1, !tbaa !28
  %11 = sext i8 %10 to i32
  %12 = icmp eq i32 %11, 35
  br i1 %12, label %13, label %31

13:                                               ; preds = %8
  store i32 1, ptr %5, align 4, !tbaa !31
  br label %14

14:                                               ; preds = %27, %13
  %15 = load i32, ptr %5, align 4, !tbaa !31
  %16 = icmp slt i32 %15, 15
  br i1 %16, label %17, label %30

17:                                               ; preds = %14
  %18 = load ptr, ptr %4, align 8, !tbaa !8
  %19 = load i32, ptr %5, align 4, !tbaa !31
  %20 = sext i32 %19 to i64
  %21 = getelementptr inbounds i8, ptr %18, i64 %20
  %22 = load i8, ptr %21, align 1, !tbaa !28
  %23 = sext i8 %22 to i32
  %24 = icmp eq i32 %23, 32
  br i1 %24, label %25, label %26

25:                                               ; preds = %17
  br label %30

26:                                               ; preds = %17
  br label %27

27:                                               ; preds = %26
  %28 = load i32, ptr %5, align 4, !tbaa !31
  %29 = add nsw i32 %28, 1
  store i32 %29, ptr %5, align 4, !tbaa !31
  br label %14, !llvm.loop !33

30:                                               ; preds = %25, %14
  br label %31

31:                                               ; preds = %30, %8
  br label %32

32:                                               ; preds = %31, %2
  %33 = load ptr, ptr %3, align 8, !tbaa !3
  %34 = icmp ne ptr %33, null
  br i1 %34, label %35, label %49

35:                                               ; preds = %32
  %36 = load ptr, ptr %3, align 8, !tbaa !3
  %37 = getelementptr inbounds nuw %struct.png_struct_def, ptr %36, i32 0, i32 5
  %38 = load ptr, ptr %37, align 8, !tbaa !34
  %39 = icmp ne ptr %38, null
  br i1 %39, label %40, label %49

40:                                               ; preds = %35
  %41 = load ptr, ptr %3, align 8, !tbaa !3
  %42 = getelementptr inbounds nuw %struct.png_struct_def, ptr %41, i32 0, i32 5
  %43 = load ptr, ptr %42, align 8, !tbaa !34
  %44 = load ptr, ptr %3, align 8, !tbaa !3
  %45 = load ptr, ptr %4, align 8, !tbaa !8
  %46 = load i32, ptr %5, align 4, !tbaa !31
  %47 = sext i32 %46 to i64
  %48 = getelementptr inbounds i8, ptr %45, i64 %47
  call void %43(ptr noundef %44, ptr noundef %48)
  br label %55

49:                                               ; preds = %35, %32
  %50 = load ptr, ptr %3, align 8, !tbaa !3
  %51 = load ptr, ptr %4, align 8, !tbaa !8
  %52 = load i32, ptr %5, align 4, !tbaa !31
  %53 = sext i32 %52 to i64
  %54 = getelementptr inbounds i8, ptr %51, i64 %53
  call void @png_default_warning(ptr noundef %50, ptr noundef %54)
  br label %55

55:                                               ; preds = %49, %40
  call void @llvm.lifetime.end.p0(i64 4, ptr %5) #10
  ret void
}

; Function Attrs: nounwind uwtable
define void @png_formatted_warning(ptr noalias noundef %0, ptr noundef %1, ptr noundef %2) #1 {
  %4 = alloca ptr, align 8
  %5 = alloca ptr, align 8
  %6 = alloca ptr, align 8
  %7 = alloca i64, align 8
  %8 = alloca [192 x i8], align 16
  %9 = alloca i32, align 4
  %10 = alloca i32, align 4
  %11 = alloca ptr, align 8
  %12 = alloca ptr, align 8
  %13 = alloca i32, align 4
  store ptr %0, ptr %4, align 8, !tbaa !3
  store ptr %1, ptr %5, align 8, !tbaa !8
  store ptr %2, ptr %6, align 8, !tbaa !8
  call void @llvm.lifetime.start.p0(i64 8, ptr %7) #10
  store i64 0, ptr %7, align 8, !tbaa !27
  call void @llvm.lifetime.start.p0(i64 192, ptr %8) #10
  br label %14

14:                                               ; preds = %106, %103, %3
  %15 = load i64, ptr %7, align 8, !tbaa !27
  %16 = icmp ult i64 %15, 191
  br i1 %16, label %17, label %22

17:                                               ; preds = %14
  %18 = load ptr, ptr %6, align 8, !tbaa !8
  %19 = load i8, ptr %18, align 1, !tbaa !28
  %20 = sext i8 %19 to i32
  %21 = icmp ne i32 %20, 0
  br label %22

22:                                               ; preds = %17, %14
  %23 = phi i1 [ false, %14 ], [ %21, %17 ]
  br i1 %23, label %24, label %113

24:                                               ; preds = %22
  %25 = load ptr, ptr %5, align 8, !tbaa !8
  %26 = icmp ne ptr %25, null
  br i1 %26, label %27, label %106

27:                                               ; preds = %24
  %28 = load ptr, ptr %6, align 8, !tbaa !8
  %29 = load i8, ptr %28, align 1, !tbaa !28
  %30 = sext i8 %29 to i32
  %31 = icmp eq i32 %30, 64
  br i1 %31, label %32, label %106

32:                                               ; preds = %27
  %33 = load ptr, ptr %6, align 8, !tbaa !8
  %34 = getelementptr inbounds i8, ptr %33, i64 1
  %35 = load i8, ptr %34, align 1, !tbaa !28
  %36 = sext i8 %35 to i32
  %37 = icmp ne i32 %36, 0
  br i1 %37, label %38, label %106

38:                                               ; preds = %32
  call void @llvm.lifetime.start.p0(i64 4, ptr %9) #10
  %39 = load ptr, ptr %6, align 8, !tbaa !8
  %40 = getelementptr inbounds nuw i8, ptr %39, i32 1
  store ptr %40, ptr %6, align 8, !tbaa !8
  %41 = load i8, ptr %40, align 1, !tbaa !28
  %42 = sext i8 %41 to i32
  store i32 %42, ptr %9, align 4, !tbaa !31
  call void @llvm.lifetime.start.p0(i64 4, ptr %10) #10
  store i32 0, ptr %10, align 4, !tbaa !31
  br label %43

43:                                               ; preds = %60, %38
  %44 = load i32, ptr %10, align 4, !tbaa !31
  %45 = sext i32 %44 to i64
  %46 = getelementptr inbounds [10 x i8], ptr @png_formatted_warning.valid_parameters, i64 0, i64 %45
  %47 = load i8, ptr %46, align 1, !tbaa !28
  %48 = sext i8 %47 to i32
  %49 = load i32, ptr %9, align 4, !tbaa !31
  %50 = icmp ne i32 %48, %49
  br i1 %50, label %51, label %58

51:                                               ; preds = %43
  %52 = load i32, ptr %10, align 4, !tbaa !31
  %53 = sext i32 %52 to i64
  %54 = getelementptr inbounds [10 x i8], ptr @png_formatted_warning.valid_parameters, i64 0, i64 %53
  %55 = load i8, ptr %54, align 1, !tbaa !28
  %56 = sext i8 %55 to i32
  %57 = icmp ne i32 %56, 0
  br label %58

58:                                               ; preds = %51, %43
  %59 = phi i1 [ false, %43 ], [ %57, %51 ]
  br i1 %59, label %60, label %63

60:                                               ; preds = %58
  %61 = load i32, ptr %10, align 4, !tbaa !31
  %62 = add nsw i32 %61, 1
  store i32 %62, ptr %10, align 4, !tbaa !31
  br label %43, !llvm.loop !35

63:                                               ; preds = %58
  %64 = load i32, ptr %10, align 4, !tbaa !31
  %65 = icmp slt i32 %64, 8
  br i1 %65, label %66, label %102

66:                                               ; preds = %63
  call void @llvm.lifetime.start.p0(i64 8, ptr %11) #10
  %67 = load ptr, ptr %5, align 8, !tbaa !8
  %68 = load i32, ptr %10, align 4, !tbaa !31
  %69 = sext i32 %68 to i64
  %70 = getelementptr inbounds [32 x i8], ptr %67, i64 %69
  %71 = getelementptr inbounds [32 x i8], ptr %70, i64 0, i64 0
  store ptr %71, ptr %11, align 8, !tbaa !8
  call void @llvm.lifetime.start.p0(i64 8, ptr %12) #10
  %72 = load ptr, ptr %5, align 8, !tbaa !8
  %73 = load i32, ptr %10, align 4, !tbaa !31
  %74 = sext i32 %73 to i64
  %75 = getelementptr inbounds [32 x i8], ptr %72, i64 %74
  %76 = getelementptr inbounds [32 x i8], ptr %75, i64 0, i64 0
  %77 = getelementptr inbounds nuw i8, ptr %76, i64 32
  store ptr %77, ptr %12, align 8, !tbaa !8
  br label %78

78:                                               ; preds = %92, %66
  %79 = load i64, ptr %7, align 8, !tbaa !27
  %80 = icmp ult i64 %79, 191
  br i1 %80, label %81, label %90

81:                                               ; preds = %78
  %82 = load ptr, ptr %11, align 8, !tbaa !8
  %83 = load i8, ptr %82, align 1, !tbaa !28
  %84 = sext i8 %83 to i32
  %85 = icmp ne i32 %84, 0
  br i1 %85, label %86, label %90

86:                                               ; preds = %81
  %87 = load ptr, ptr %11, align 8, !tbaa !8
  %88 = load ptr, ptr %12, align 8, !tbaa !8
  %89 = icmp ult ptr %87, %88
  br label %90

90:                                               ; preds = %86, %81, %78
  %91 = phi i1 [ false, %81 ], [ false, %78 ], [ %89, %86 ]
  br i1 %91, label %92, label %99

92:                                               ; preds = %90
  %93 = load ptr, ptr %11, align 8, !tbaa !8
  %94 = getelementptr inbounds nuw i8, ptr %93, i32 1
  store ptr %94, ptr %11, align 8, !tbaa !8
  %95 = load i8, ptr %93, align 1, !tbaa !28
  %96 = load i64, ptr %7, align 8, !tbaa !27
  %97 = add i64 %96, 1
  store i64 %97, ptr %7, align 8, !tbaa !27
  %98 = getelementptr inbounds nuw [192 x i8], ptr %8, i64 0, i64 %96
  store i8 %95, ptr %98, align 1, !tbaa !28
  br label %78, !llvm.loop !36

99:                                               ; preds = %90
  %100 = load ptr, ptr %6, align 8, !tbaa !8
  %101 = getelementptr inbounds nuw i8, ptr %100, i32 1
  store ptr %101, ptr %6, align 8, !tbaa !8
  store i32 2, ptr %13, align 4
  call void @llvm.lifetime.end.p0(i64 8, ptr %12) #10
  call void @llvm.lifetime.end.p0(i64 8, ptr %11) #10
  br label %103

102:                                              ; preds = %63
  store i32 0, ptr %13, align 4
  br label %103

103:                                              ; preds = %102, %99
  call void @llvm.lifetime.end.p0(i64 4, ptr %10) #10
  call void @llvm.lifetime.end.p0(i64 4, ptr %9) #10
  %104 = load i32, ptr %13, align 4
  switch i32 %104, label %118 [
    i32 0, label %105
    i32 2, label %14
  ]

105:                                              ; preds = %103
  br label %106

106:                                              ; preds = %105, %32, %27, %24
  %107 = load ptr, ptr %6, align 8, !tbaa !8
  %108 = getelementptr inbounds nuw i8, ptr %107, i32 1
  store ptr %108, ptr %6, align 8, !tbaa !8
  %109 = load i8, ptr %107, align 1, !tbaa !28
  %110 = load i64, ptr %7, align 8, !tbaa !27
  %111 = add i64 %110, 1
  store i64 %111, ptr %7, align 8, !tbaa !27
  %112 = getelementptr inbounds nuw [192 x i8], ptr %8, i64 0, i64 %110
  store i8 %109, ptr %112, align 1, !tbaa !28
  br label %14, !llvm.loop !37

113:                                              ; preds = %22
  %114 = load i64, ptr %7, align 8, !tbaa !27
  %115 = getelementptr inbounds nuw [192 x i8], ptr %8, i64 0, i64 %114
  store i8 0, ptr %115, align 1, !tbaa !28
  %116 = load ptr, ptr %4, align 8, !tbaa !3
  %117 = getelementptr inbounds [192 x i8], ptr %8, i64 0, i64 0
  call void @png_warning(ptr noundef %116, ptr noundef %117)
  call void @llvm.lifetime.end.p0(i64 192, ptr %8) #10
  call void @llvm.lifetime.end.p0(i64 8, ptr %7) #10
  ret void

118:                                              ; preds = %103
  unreachable
}