; Function Attrs: nounwind uwtable
define void @png_formatted_warning(ptr noalias noundef %0, ptr noundef readonly captures(address_is_null) %1, ptr noundef readonly captures(none) %2) local_unnamed_addr #5 {
  %4 = alloca [192 x i8], align 16
  call void @llvm.lifetime.start.p0(i64 192, ptr nonnull %4) #21
  %.not40.not = icmp eq ptr %1, null
  br i1 %.not40.not, label %.split.us, label %.split

.split.us:                                        ; preds = %3, %.thread.us
  %.03056.us = phi ptr [ %6, %.thread.us ], [ %2, %3 ]
  %.03355.us = phi i64 [ %7, %.thread.us ], [ 0, %3 ]
  %5 = load i8, ptr %.03056.us, align 1, !tbaa !24
  %.not.us = icmp eq i8 %5, 0
  br i1 %.not.us, label %.critedge, label %.thread.us

.thread.us:                                       ; preds = %.split.us
  %6 = getelementptr inbounds nuw i8, ptr %.03056.us, i64 1
  %7 = add nuw nsw i64 %.03355.us, 1
  %8 = getelementptr inbounds nuw [192 x i8], ptr %4, i64 0, i64 %.03355.us
  store i8 %5, ptr %8, align 1, !tbaa !24
  %exitcond60.not = icmp eq i64 %7, 191
  br i1 %exitcond60.not, label %.critedge, label %.split.us, !llvm.loop !30

.split:                                           ; preds = %3, %.backedge
  %.03056 = phi ptr [ %.030.be, %.backedge ], [ %2, %3 ]
  %.03355 = phi i64 [ %.033.be, %.backedge ], [ 0, %3 ]
  %9 = load i8, ptr %.03056, align 1, !tbaa !24
  switch i8 %9, label %.thread [
    i8 0, label %.critedge
    i8 64, label %10
  ]

10:                                               ; preds = %.split
  %11 = getelementptr inbounds nuw i8, ptr %.03056, i64 1
  %12 = load i8, ptr %11, align 1, !tbaa !24
  %.not41 = icmp eq i8 %12, 0
  br i1 %.not41, label %.thread, label %.preheader

.preheader:                                       ; preds = %10, %.preheader
  %indvars.iv = phi i64 [ %indvars.iv.next, %.preheader ], [ 0, %10 ]
  %13 = getelementptr inbounds nuw [10 x i8], ptr @png_formatted_warning.valid_parameters, i64 0, i64 %indvars.iv
  %14 = load i8, ptr %13, align 1, !tbaa !24
  %.not42 = icmp eq i8 %14, %12
  %.not43 = icmp eq i64 %indvars.iv, 9
  %or.cond45 = or i1 %.not43, %.not42
  %indvars.iv.next = add nuw nsw i64 %indvars.iv, 1
  br i1 %or.cond45, label %.critedge2, label %.preheader, !llvm.loop !31

.critedge2:                                       ; preds = %.preheader
  %15 = icmp samesign ult i64 %indvars.iv, 8
  br i1 %15, label %16, label %.thread

16:                                               ; preds = %.critedge2
  %17 = getelementptr inbounds nuw [32 x i8], ptr %1, i64 %indvars.iv
  %18 = icmp samesign ult i64 %.03355, 191
  br i1 %18, label %.lr.ph.preheader, label %._crit_edge

.lr.ph.preheader:                                 ; preds = %16
  %19 = sub nuw nsw i64 191, %.03355
  br label %.lr.ph

.lr.ph:                                           ; preds = %.lr.ph.preheader, %22
  %.031.idx52 = phi i64 [ %.031.add, %22 ], [ 0, %.lr.ph.preheader ]
  %.23551 = phi i64 [ %23, %22 ], [ %.03355, %.lr.ph.preheader ]
  %.031.ptr = getelementptr inbounds nuw i8, ptr %17, i64 %.031.idx52
  %20 = load i8, ptr %.031.ptr, align 1, !tbaa !24
  %.not44 = icmp ne i8 %20, 0
  %21 = icmp samesign ult i64 %.031.idx52, 32
  %or.cond46 = select i1 %.not44, i1 %21, i1 false
  br i1 %or.cond46, label %22, label %._crit_edge

22:                                               ; preds = %.lr.ph
  %.031.add = add nuw nsw i64 %.031.idx52, 1
  %23 = add nuw nsw i64 %.23551, 1
  %24 = getelementptr inbounds nuw [192 x i8], ptr %4, i64 0, i64 %.23551
  store i8 %20, ptr %24, align 1, !tbaa !24
  %exitcond.not = icmp eq i64 %.031.add, %19
  br i1 %exitcond.not, label %._crit_edge, label %.lr.ph, !llvm.loop !32

._crit_edge:                                      ; preds = %.lr.ph, %22, %16
  %.235.lcssa = phi i64 [ %.03355, %16 ], [ 191, %22 ], [ %.23551, %.lr.ph ]
  %25 = getelementptr inbounds nuw i8, ptr %.03056, i64 2
  br label %.backedge

.thread:                                          ; preds = %.critedge2, %.split, %10
  %26 = phi i8 [ 64, %10 ], [ %9, %.split ], [ %12, %.critedge2 ]
  %.1 = phi ptr [ %.03056, %10 ], [ %.03056, %.split ], [ %11, %.critedge2 ]
  %27 = getelementptr inbounds nuw i8, ptr %.1, i64 1
  %28 = add nuw nsw i64 %.03355, 1
  %29 = getelementptr inbounds nuw [192 x i8], ptr %4, i64 0, i64 %.03355
  store i8 %26, ptr %29, align 1, !tbaa !24
  br label %.backedge

.backedge:                                        ; preds = %.thread, %._crit_edge
  %.033.be = phi i64 [ %.235.lcssa, %._crit_edge ], [ %28, %.thread ]
  %.030.be = phi ptr [ %25, %._crit_edge ], [ %27, %.thread ]
  %30 = icmp ult i64 %.033.be, 191
  br i1 %30, label %.split, label %.critedge, !llvm.loop !30

.critedge:                                        ; preds = %.backedge, %.split, %.split.us, %.thread.us
  %.us-phi = phi i64 [ 191, %.thread.us ], [ %.03355.us, %.split.us ], [ %.033.be, %.backedge ], [ %.03355, %.split ]
  %31 = getelementptr inbounds nuw [192 x i8], ptr %4, i64 0, i64 %.us-phi
  store i8 0, ptr %31, align 1, !tbaa !24
  tail call void @llvm.experimental.noalias.scope.decl(metadata !33)
  %.not.i = icmp eq ptr %0, null
  br i1 %.not.i, label %.split.i, label %32

32:                                               ; preds = %.critedge
  %33 = load i8, ptr %4, align 16, !tbaa !24, !noalias !33
  %34 = icmp eq i8 %33, 35
  br i1 %34, label %.preheader.i, label %.thread20.i

.preheader.i:                                     ; preds = %32, %38
  %indvars.iv.i = phi i64 [ %indvars.iv.next.i, %38 ], [ 1, %32 ]
  %35 = getelementptr inbounds nuw i8, ptr %4, i64 %indvars.iv.i
  %36 = load i8, ptr %35, align 1, !tbaa !24, !noalias !33
  %37 = icmp eq i8 %36, 32
  br i1 %37, label %.thread20.loopexit.i, label %38

38:                                               ; preds = %.preheader.i
  %indvars.iv.next.i = add nuw nsw i64 %indvars.iv.i, 1
  %exitcond.not.i = icmp eq i64 %indvars.iv.next.i, 15
  br i1 %exitcond.not.i, label %.thread20.loopexit.i, label %.preheader.i, !llvm.loop !28

.split.i:                                         ; preds = %.critedge
  call fastcc void @png_default_warning(ptr noundef nonnull %4)
  br label %png_warning.exit

.thread20.loopexit.i:                             ; preds = %38, %.preheader.i
  %.022.ph.i = phi i64 [ 15, %38 ], [ %indvars.iv.i, %.preheader.i ]
  %39 = and i64 %.022.ph.i, 4294967295
  br label %.thread20.i

.thread20.i:                                      ; preds = %.thread20.loopexit.i, %32
  %.022.i = phi i64 [ 0, %32 ], [ %39, %.thread20.loopexit.i ]
  %40 = getelementptr inbounds nuw i8, ptr %0, i64 232
  %41 = load ptr, ptr %40, align 8, !tbaa !29, !alias.scope !33
  %.not17.i = icmp eq ptr %41, null
  %42 = getelementptr inbounds nuw i8, ptr %4, i64 %.022.i
  br i1 %.not17.i, label %.split14.i, label %43

.split14.i:                                       ; preds = %.thread20.i
  call fastcc void @png_default_warning(ptr noundef nonnull %42)
  br label %png_warning.exit

43:                                               ; preds = %.thread20.i
  call void %41(ptr noundef nonnull %0, ptr noundef nonnull %42) #21
  br label %png_warning.exit

png_warning.exit:                                 ; preds = %.split.i, %.split14.i, %43
  call void @llvm.lifetime.end.p0(i64 192, ptr nonnull %4) #21
  ret void
}